target datalayout = "e-m:e-p270:32:32-p271:32:32-p272:64:64-i64:64-i128:128-f80:128-n8:16:32:64-S128"
target triple = "x86_64-pc-linux-gnu"

%class.LogTagSet = type { ptr, i64, [5 x i32], [4 x i8], %class.LogOutputList, %class.LogDecorators, ptr }
%class.LogOutputList = type <{ [6 x ptr], i32, [4 x i8] }>
%class.LogDecorators = type { i32 }
%class.NumberSeq = type { %class.AbsSeq, double, double }
%class.AbsSeq = type { ptr, i32, double, double, double, double, double }
%class.G1CMTask = type { %class.TerminatorTerminator, %class.G1CMObjArrayProcessor, i32, ptr, ptr, ptr, ptr, %class.G1RegionMarkStatsCache, i32, double, double, ptr, ptr, ptr, ptr, i64, i64, i64, i64, i64, i64, i8, i8, i8, %class.NumberSeq, double, double, %class.TruncatedSeq }
%class.TerminatorTerminator = type { ptr }
%class.G1CMObjArrayProcessor = type { ptr }
%class.G1RegionMarkStatsCache = type { ptr, ptr, i32, i64, i64, i64 }
%class.TruncatedSeq = type { %class.AbsSeq, ptr, i32, i32 }

@.str.70 = private unnamed_addr constant [37 x i8] c"Marking Stats, task = %u, calls = %u\00", align 1
@.str.71 = private unnamed_addr constant [55 x i8] c"  Elapsed time = %1.2lfms, Termination time = %1.2lfms\00", align 1
@.str.72 = private unnamed_addr constant [93 x i8] c"  Step Times (cum): num = %d, avg = %1.2lfms, sd = %1.2lfms max = %1.2lfms, total = %1.2lfms\00", align 1
@.str.73 = private unnamed_addr constant [51 x i8] c"  Mark Stats Cache: hits %lu misses %lu ratio %.3f\00", align 1
@_ZN16LogTagSetMappingILN6LogTag4typeE49ELS1_146ELS1_0ELS1_0ELS1_0ELS1_0EE7_tagsetE = linkonce_odr hidden global %class.LogTagSet zeroinitializer, comdat, align 8

; Function Attrs: mustprogress nounwind uwtable
define linkonce_odr hidden noundef zeroext i1 @_ZNK13LogOutputList8is_levelEN8LogLevel4typeE(ptr noundef nonnull align 8 dereferenceable(52) %0, i32 noundef %1) #1 comdat align 2 {
  %3 = alloca ptr, align 8
  %4 = alloca i32, align 4
  store ptr %0, ptr %3, align 8
  store i32 %1, ptr %4, align 4
  %5 = load ptr, ptr %3, align 8
  %6 = getelementptr inbounds %class.LogOutputList, ptr %5, i32 0, i32 0
  %7 = load i32, ptr %4, align 4
  %8 = zext i32 %7 to i64
  %9 = getelementptr inbounds [6 x ptr], ptr %6, i64 0, i64 %8
  %10 = load volatile ptr, ptr %9, align 8
  %11 = icmp ne ptr %10, null
  ret i1 %11
}

; Function Attrs: mustprogress nounwind uwtable
define linkonce_odr hidden noundef zeroext i1 @_ZNK9LogTagSet8is_levelEN8LogLevel4typeE(ptr noundef nonnull align 8 dereferenceable(112) %0, i32 noundef %1) #1 comdat align 2 {
  %3 = alloca ptr, align 8
  %4 = alloca i32, align 4
  store ptr %0, ptr %3, align 8
  store i32 %1, ptr %4, align 4
  %5 = load ptr, ptr %3, align 8
  %6 = getelementptr inbounds %class.LogTagSet, ptr %5, i32 0, i32 4
  %7 = load i32, ptr %4, align 4
  %8 = call noundef zeroext i1 @_ZNK13LogOutputList8is_levelEN8LogLevel4typeE(ptr noundef nonnull align 8 dereferenceable(52) %6, i32 noundef %7)
  ret i1 %8
}

; Function Attrs: mustprogress nounwind uwtable
define linkonce_odr hidden noundef nonnull align 8 dereferenceable(112) ptr @_ZN16LogTagSetMappingILN6LogTag4typeE49ELS1_146ELS1_0ELS1_0ELS1_0ELS1_0EE6tagsetEv() #1 comdat align 2 {
  ret ptr @_ZN16LogTagSetMappingILN6LogTag4typeE49ELS1_146ELS1_0ELS1_0ELS1_0ELS1_0EE7_tagsetE
}

; Function Attrs: mustprogress nounwind uwtable
define linkonce_odr hidden noundef double @_Z10percent_ofImEdT_S0_(i64 noundef %0, i64 noundef %1) #1 comdat {
  %3 = alloca i64, align 8
  %4 = alloca i64, align 8
  store i64 %0, ptr %3, align 8
  store i64 %1, ptr %4, align 8
  %5 = load i64, ptr %4, align 8
  %6 = icmp ne i64 %5, 0
  br i1 %6, label %7, label %14

7:                                                ; preds = %2
  %8 = load i64, ptr %3, align 8
  %9 = uitofp i64 %8 to double
  %10 = load i64, ptr %4, align 8
  %11 = uitofp i64 %10 to double
  %12 = fdiv double %9, %11
  %13 = fmul double %12, 1.000000e+02
  br label %15

14:                                               ; preds = %2
  br label %15

15:                                               ; preds = %14, %7
  %16 = phi double [ %13, %7 ], [ 0.000000e+00, %14 ]
  ret double %16
}

; Function Attrs: mustprogress nounwind uwtable
define linkonce_odr hidden noundef i64 @_ZNK22G1RegionMarkStatsCache6missesEv(ptr noundef nonnull align 8 dereferenceable(48) %0) #1 comdat align 2 {
  %2 = alloca ptr, align 8
  store ptr %0, ptr %2, align 8
  %3 = load ptr, ptr %2, align 8
  %4 = getelementptr inbounds %class.G1RegionMarkStatsCache, ptr %3, i32 0, i32 4
  %5 = load i64, ptr %4, align 8
  ret i64 %5
}

; Function Attrs: mustprogress nounwind uwtable
define linkonce_odr hidden noundef i64 @_ZNK22G1RegionMarkStatsCache4hitsEv(ptr noundef nonnull align 8 dereferenceable(48) %0) #1 comdat align 2 {
  %2 = alloca ptr, align 8
  store ptr %0, ptr %2, align 8
  %3 = load ptr, ptr %2, align 8
  %4 = getelementptr inbounds %class.G1RegionMarkStatsCache, ptr %3, i32 0, i32 3
  %5 = load i64, ptr %4, align 8
  ret i64 %5
}

; Function Attrs: mustprogress nounwind uwtable
define linkonce_odr hidden noundef double @_ZNK6AbsSeq3sumEv(ptr noundef nonnull align 8 dereferenceable(56) %0) #1 comdat align 2 {
  %2 = alloca ptr, align 8
  store ptr %0, ptr %2, align 8
  %3 = load ptr, ptr %2, align 8
  %4 = getelementptr inbounds %class.AbsSeq, ptr %3, i32 0, i32 2
  %5 = load double, ptr %4, align 8
  ret double %5
}

; Function Attrs: mustprogress nounwind uwtable
define linkonce_odr hidden noundef double @_ZNK9NumberSeq7maximumEv(ptr noundef nonnull align 8 dereferenceable(72) %0) unnamed_addr #1 comdat align 2 {
  %2 = alloca ptr, align 8
  store ptr %0, ptr %2, align 8
  %3 = load ptr, ptr %2, align 8
  %4 = getelementptr inbounds %class.NumberSeq, ptr %3, i32 0, i32 2
  %5 = load double, ptr %4, align 8
  ret double %5
}

; Function Attrs: mustprogress nounwind uwtable
define linkonce_odr hidden noundef i32 @_ZNK6AbsSeq3numEv(ptr noundef nonnull align 8 dereferenceable(56) %0) #1 comdat align 2 {
  %2 = alloca ptr, align 8
  store ptr %0, ptr %2, align 8
  %3 = load ptr, ptr %2, align 8
  %4 = getelementptr inbounds %class.AbsSeq, ptr %3, i32 0, i32 1
  %5 = load i32, ptr %4, align 8
  ret i32 %5
}

; Function Attrs: mustprogress nounwind uwtable
define linkonce_odr hidden noundef zeroext i1 @_ZN7LogImplILN6LogTag4typeE49ELS1_146ELS1_0ELS1_0ELS1_0ELS1_0EE8is_levelEN8LogLevel4typeE(i32 noundef %0) #1 comdat align 2 {
  %2 = alloca i32, align 4
  store i32 %0, ptr %2, align 4
  %3 = call noundef nonnull align 8 dereferenceable(112) ptr @_ZN16LogTagSetMappingILN6LogTag4typeE49ELS1_146ELS1_0ELS1_0ELS1_0ELS1_0EE6tagsetEv()
  %4 = load i32, ptr %2, align 4
  %5 = call noundef zeroext i1 @_ZNK9LogTagSet8is_levelEN8LogLevel4typeE(ptr noundef nonnull align 8 dereferenceable(112) %3, i32 noundef %4)
  ret i1 %5
}

; Function Attrs: mustprogress nounwind uwtable
define hidden void @_ZN8G1CMTask11print_statsEv(ptr noundef nonnull align 8 dereferenceable(376) %0) #1 align 2 {
  %2 = alloca ptr, align 8
  %3 = alloca i64, align 8
  %4 = alloca i64, align 8
  store ptr %0, ptr %2, align 8
  %5 = load ptr, ptr %2, align 8
  %6 = call noundef zeroext i1 @_ZN7LogImplILN6LogTag4typeE49ELS1_146ELS1_0ELS1_0ELS1_0ELS1_0EE8is_levelEN8LogLevel4typeE(i32 noundef 2)
  br i1 %6, label %8, label %7

7:                                                ; preds = %1
  br label %13

8:                                                ; preds = %1
  %9 = getelementptr inbounds %class.G1CMTask, ptr %5, i32 0, i32 2
  %10 = load i32, ptr %9, align 8
  %11 = getelementptr inbounds %class.G1CMTask, ptr %5, i32 0, i32 8
  %12 = load i32, ptr %11, align 8
  call void (ptr, ...) @_ZN7LogImplILN6LogTag4typeE49ELS1_146ELS1_0ELS1_0ELS1_0ELS1_0EE5writeILN8LogLevel4typeE2EEEvPKcz(ptr noundef @.str.70, i32 noundef %10, i32 noundef %12)
  br label %13

13:                                               ; preds = %8, %7
  %14 = call noundef zeroext i1 @_ZN7LogImplILN6LogTag4typeE49ELS1_146ELS1_0ELS1_0ELS1_0ELS1_0EE8is_levelEN8LogLevel4typeE(i32 noundef 2)
  br i1 %14, label %16, label %15

15:                                               ; preds = %13
  br label %21

16:                                               ; preds = %13
  %17 = getelementptr inbounds %class.G1CMTask, ptr %5, i32 0, i32 25
  %18 = load double, ptr %17, align 8
  %19 = getelementptr inbounds %class.G1CMTask, ptr %5, i32 0, i32 26
  %20 = load double, ptr %19, align 8
  call void (ptr, ...) @_ZN7LogImplILN6LogTag4typeE49ELS1_146ELS1_0ELS1_0ELS1_0ELS1_0EE5writeILN8LogLevel4typeE2EEEvPKcz(ptr noundef @.str.71, double noundef %18, double noundef %20)
  br label %21

21:                                               ; preds = %16, %15
  %22 = call noundef zeroext i1 @_ZN7LogImplILN6LogTag4typeE49ELS1_146ELS1_0ELS1_0ELS1_0ELS1_0EE8is_levelEN8LogLevel4typeE(i32 noundef 2)
  br i1 %22, label %24, label %23

23:                                               ; preds = %21
  br label %35

24:                                               ; preds = %21
  %25 = getelementptr inbounds %class.G1CMTask, ptr %5, i32 0, i32 24
  %26 = call noundef i32 @_ZNK6AbsSeq3numEv(ptr noundef nonnull align 8 dereferenceable(56) %25)
  %27 = getelementptr inbounds %class.G1CMTask, ptr %5, i32 0, i32 24
  %28 = call noundef double @_ZNK6AbsSeq3avgEv(ptr noundef nonnull align 8 dereferenceable(56) %27)
  %29 = getelementptr inbounds %class.G1CMTask, ptr %5, i32 0, i32 24
  %30 = call noundef double @_ZNK6AbsSeq2sdEv(ptr noundef nonnull align 8 dereferenceable(56) %29)
  %31 = getelementptr inbounds %class.G1CMTask, ptr %5, i32 0, i32 24
  %32 = call noundef double @_ZNK9NumberSeq7maximumEv(ptr noundef nonnull align 8 dereferenceable(72) %31)
  %33 = getelementptr inbounds %class.G1CMTask, ptr %5, i32 0, i32 24
  %34 = call noundef double @_ZNK6AbsSeq3sumEv(ptr noundef nonnull align 8 dereferenceable(56) %33)
  call void (ptr, ...) @_ZN7LogImplILN6LogTag4typeE49ELS1_146ELS1_0ELS1_0ELS1_0ELS1_0EE5writeILN8LogLevel4typeE2EEEvPKcz(ptr noundef @.str.72, i32 noundef %26, double noundef %28, double noundef %30, double noundef %32, double noundef %34)
  br label %35

35:                                               ; preds = %24, %23
  %36 = getelementptr inbounds %class.G1CMTask, ptr %5, i32 0, i32 7
  %37 = call noundef i64 @_ZNK22G1RegionMarkStatsCache4hitsEv(ptr noundef nonnull align 8 dereferenceable(48) %36)
  store i64 %37, ptr %3, align 8
  %38 = getelementptr inbounds %class.G1CMTask, ptr %5, i32 0, i32 7
  %39 = call noundef i64 @_ZNK22G1RegionMarkStatsCache6missesEv(ptr noundef nonnull align 8 dereferenceable(48) %38)
  store i64 %39, ptr %4, align 8
  %40 = call noundef zeroext i1 @_ZN7LogImplILN6LogTag4typeE49ELS1_146ELS1_0ELS1_0ELS1_0ELS1_0EE8is_levelEN8LogLevel4typeE(i32 noundef 2)
  br i1 %40, label %42, label %41

41:                                               ; preds = %35
  br label %50

42:                                               ; preds = %35
  %43 = load i64, ptr %3, align 8
  %44 = load i64, ptr %4, align 8
  %45 = load i64, ptr %3, align 8
  %46 = load i64, ptr %3, align 8
  %47 = load i64, ptr %4, align 8
  %48 = add i64 %46, %47
  %49 = call noundef double @_Z10percent_ofImEdT_S0_(i64 noundef %45, i64 noundef %48)
  call void (ptr, ...) @_ZN7LogImplILN6LogTag4typeE49ELS1_146ELS1_0ELS1_0ELS1_0ELS1_0EE5writeILN8LogLevel4typeE2EEEvPKcz(ptr noundef @.str.73, i64 noundef %43, i64 noundef %44, double noundef %49)
  br label %50

50:                                               ; preds = %42, %41
  ret void
}