; Function Attrs: mustprogress nounwind uwtable
define hidden void @_ZN8G1CMTask11print_statsEv(ptr noundef nonnull align 8 dereferenceable(376) %0) local_unnamed_addr #0 align 2 {
  %2 = load volatile ptr, ptr getelementptr inbounds (i8, ptr @_ZN16LogTagSetMappingILN6LogTag4typeE49ELS1_146ELS1_0ELS1_0ELS1_0ELS1_0EE7_tagsetE, i64 56), align 8
  %.not = icmp eq ptr %2, null
  br i1 %.not, label %8, label %3

3:                                                ; preds = %1
  %4 = getelementptr inbounds i8, ptr %0, i64 16
  %5 = load i32, ptr %4, align 8
  %6 = getelementptr inbounds i8, ptr %0, i64 104
  %7 = load i32, ptr %6, align 8
  tail call void (ptr, ...) @_ZN7LogImplILN6LogTag4typeE49ELS1_146ELS1_0ELS1_0ELS1_0ELS1_0EE5writeILN8LogLevel4typeE2EEEvPKcz(ptr noundef nonnull @.str.70, i32 noundef %5, i32 noundef %7)
  br label %8

8:                                                ; preds = %1, %3
  %9 = load volatile ptr, ptr getelementptr inbounds (i8, ptr @_ZN16LogTagSetMappingILN6LogTag4typeE49ELS1_146ELS1_0ELS1_0ELS1_0ELS1_0EE7_tagsetE, i64 56), align 8
  %.not5 = icmp eq ptr %9, null
  br i1 %.not5, label %15, label %10

10:                                               ; preds = %8
  %11 = getelementptr inbounds i8, ptr %0, i64 288
  %12 = load double, ptr %11, align 8
  %13 = getelementptr inbounds i8, ptr %0, i64 296
  %14 = load double, ptr %13, align 8
  tail call void (ptr, ...) @_ZN7LogImplILN6LogTag4typeE49ELS1_146ELS1_0ELS1_0ELS1_0ELS1_0EE5writeILN8LogLevel4typeE2EEEvPKcz(ptr noundef nonnull @.str.71, double noundef %12, double noundef %14)
  br label %15

15:                                               ; preds = %8, %10
  %16 = load volatile ptr, ptr getelementptr inbounds (i8, ptr @_ZN16LogTagSetMappingILN6LogTag4typeE49ELS1_146ELS1_0ELS1_0ELS1_0ELS1_0EE7_tagsetE, i64 56), align 8
  %.not6 = icmp eq ptr %16, null
  br i1 %.not6, label %27, label %17

17:                                               ; preds = %15
  %18 = getelementptr inbounds i8, ptr %0, i64 216
  %19 = getelementptr inbounds i8, ptr %0, i64 224
  %20 = load i32, ptr %19, align 8
  %21 = tail call noundef double @_ZNK6AbsSeq3avgEv(ptr noundef nonnull align 8 dereferenceable(56) %18) #22
  %22 = tail call noundef double @_ZNK6AbsSeq2sdEv(ptr noundef nonnull align 8 dereferenceable(56) %18) #22
  %23 = getelementptr inbounds i8, ptr %0, i64 280
  %24 = load double, ptr %23, align 8
  %25 = getelementptr inbounds i8, ptr %0, i64 232
  %26 = load double, ptr %25, align 8
  tail call void (ptr, ...) @_ZN7LogImplILN6LogTag4typeE49ELS1_146ELS1_0ELS1_0ELS1_0ELS1_0EE5writeILN8LogLevel4typeE2EEEvPKcz(ptr noundef nonnull @.str.72, i32 noundef %20, double noundef %21, double noundef %22, double noundef %24, double noundef %26)
  br label %27

27:                                               ; preds = %15, %17
  %28 = getelementptr inbounds i8, ptr %0, i64 80
  %29 = load i64, ptr %28, align 8
  %30 = getelementptr inbounds i8, ptr %0, i64 88
  %31 = load i64, ptr %30, align 8
  %32 = load volatile ptr, ptr getelementptr inbounds (i8, ptr @_ZN16LogTagSetMappingILN6LogTag4typeE49ELS1_146ELS1_0ELS1_0ELS1_0ELS1_0EE7_tagsetE, i64 56), align 8
  %.not7 = icmp eq ptr %32, null
  br i1 %.not7, label %40, label %33

33:                                               ; preds = %27
  %34 = add i64 %31, %29
  %.not.i = icmp eq i64 %34, 0
  %35 = uitofp i64 %29 to double
  %36 = uitofp i64 %34 to double
  %37 = fdiv double %35, %36
  %38 = fmul double %37, 1.000000e+02
  %39 = select i1 %.not.i, double 0.000000e+00, double %38
  tail call void (ptr, ...) @_ZN7LogImplILN6LogTag4typeE49ELS1_146ELS1_0ELS1_0ELS1_0ELS1_0EE5writeILN8LogLevel4typeE2EEEvPKcz(ptr noundef nonnull @.str.73, i64 noundef %29, i64 noundef %31, double noundef %39)
  br label %40

40:                                               ; preds = %27, %33
  ret void
}